; Function Attrs: nounwind uwtable
define internal i32 @argo_asf_write_trailer(ptr noundef readonly captures(none) %0) #3 {
  %2 = getelementptr inbounds nuw i8, ptr %0, i64 24
  %3 = load ptr, ptr %2, align 8, !tbaa !63
  %4 = getelementptr inbounds nuw i8, ptr %0, i64 32
  %5 = load ptr, ptr %4, align 8, !tbaa !51
  %6 = tail call i64 @avio_seek(ptr noundef %5, i64 noundef 24, i32 noundef 0) #10
  %7 = icmp slt i64 %6, 0
  br i1 %7, label %8, label %10

8:                                                ; preds = %1
  %9 = trunc i64 %6 to i32
  br label %15

10:                                               ; preds = %1
  %11 = load ptr, ptr %4, align 8, !tbaa !51
  %12 = getelementptr inbounds nuw i8, ptr %3, i64 24
  %13 = load i64, ptr %12, align 8, !tbaa !86
  %14 = trunc i64 %13 to i32
  tail call void @avio_wl32(ptr noundef %11, i32 noundef %14) #10
  br label %15

15:                                               ; preds = %10, %8
  %.0 = phi i32 [ %9, %8 ], [ 0, %10 ]
  ret i32 %.0
}